target datalayout = "e-m:e-p270:32:32-p271:32:32-p272:64:64-i64:64-i128:128-f80:128-n8:16:32:64-S128"
target triple = "x86_64-pc-linux-gnu"

%struct.UTrie2 = type { ptr, ptr, ptr, i32, i32, i16, i16, i32, i32, i32, i32, ptr, i32, i8, i8, i16, ptr }
%struct.UNewTrie2 = type { [544 x i32], [35488 x i32], ptr, i32, i32, i32, i32, i32, i32, i32, i32, i32, i8, [34852 x i32] }
%struct.NewTrieAndStatus = type { ptr, i32, i8 }

; Function Attrs: mustprogress uwtable
define internal void @_ZL5set32P9UNewTrie2iajP10UErrorCode(ptr noundef %0, i32 noundef %1, i8 noundef signext %2, i32 noundef %3, ptr noundef %4) #0 {
  %6 = alloca ptr, align 8
  %7 = alloca i32, align 4
  %8 = alloca i8, align 1
  %9 = alloca i32, align 4
  %10 = alloca ptr, align 8
  %11 = alloca i32, align 4
  %12 = alloca i32, align 4
  store ptr %0, ptr %6, align 8, !tbaa !13
  store i32 %1, ptr %7, align 4, !tbaa !3
  store i8 %2, ptr %8, align 1, !tbaa !96
  store i32 %3, ptr %9, align 4, !tbaa !3
  store ptr %4, ptr %10, align 8, !tbaa !7
  call void @llvm.lifetime.start.p0(i64 4, ptr %11) #9
  %13 = load ptr, ptr %6, align 8, !tbaa !13
  %14 = icmp eq ptr %13, null
  br i1 %14, label %20, label %15

15:                                               ; preds = %5
  %16 = load ptr, ptr %6, align 8, !tbaa !13
  %17 = getelementptr inbounds nuw %struct.UNewTrie2, ptr %16, i32 0, i32 12
  %18 = load i8, ptr %17, align 4, !tbaa !31
  %19 = icmp ne i8 %18, 0
  br i1 %19, label %20, label %22

20:                                               ; preds = %15, %5
  %21 = load ptr, ptr %10, align 8, !tbaa !7
  store i32 30, ptr %21, align 4, !tbaa !9
  store i32 1, ptr %12, align 4
  br label %42

22:                                               ; preds = %15
  %23 = load ptr, ptr %6, align 8, !tbaa !13
  %24 = load i32, ptr %7, align 4, !tbaa !3
  %25 = load i8, ptr %8, align 1, !tbaa !96
  %26 = call noundef i32 @_ZL12getDataBlockP9UNewTrie2ia(ptr noundef %23, i32 noundef %24, i8 noundef signext %25)
  store i32 %26, ptr %11, align 4, !tbaa !3
  %27 = load i32, ptr %11, align 4, !tbaa !3
  %28 = icmp slt i32 %27, 0
  br i1 %28, label %29, label %31

29:                                               ; preds = %22
  %30 = load ptr, ptr %10, align 8, !tbaa !7
  store i32 7, ptr %30, align 4, !tbaa !9
  store i32 1, ptr %12, align 4
  br label %42

31:                                               ; preds = %22
  %32 = load i32, ptr %9, align 4, !tbaa !3
  %33 = load ptr, ptr %6, align 8, !tbaa !13
  %34 = getelementptr inbounds nuw %struct.UNewTrie2, ptr %33, i32 0, i32 2
  %35 = load ptr, ptr %34, align 8, !tbaa !24
  %36 = load i32, ptr %11, align 4, !tbaa !3
  %37 = load i32, ptr %7, align 4, !tbaa !3
  %38 = and i32 %37, 31
  %39 = add nsw i32 %36, %38
  %40 = sext i32 %39 to i64
  %41 = getelementptr inbounds i32, ptr %35, i64 %40
  store i32 %32, ptr %41, align 4, !tbaa !3
  store i32 0, ptr %12, align 4
  br label %42

42:                                               ; preds = %31, %29, %20
  call void @llvm.lifetime.end.p0(i64 4, ptr %11) #9
  %43 = load i32, ptr %12, align 4
  switch i32 %43, label %45 [
    i32 0, label %44
    i32 1, label %44
  ]

44:                                               ; preds = %42, %42
  ret void

45:                                               ; preds = %42
  unreachable
}

; Function Attrs: mustprogress uwtable
define void @utrie2_set32ForLeadSurrogateCodeUnit_77(ptr noundef %0, i32 noundef %1, i32 noundef %2, ptr noundef %3) #0 {
  %5 = alloca ptr, align 8
  %6 = alloca i32, align 4
  %7 = alloca i32, align 4
  %8 = alloca ptr, align 8
  store ptr %0, ptr %5, align 8, !tbaa !11
  store i32 %1, ptr %6, align 4, !tbaa !3
  store i32 %2, ptr %7, align 4, !tbaa !3
  store ptr %3, ptr %8, align 8, !tbaa !7
  %9 = load ptr, ptr %8, align 8, !tbaa !7
  %10 = load i32, ptr %9, align 4, !tbaa !9
  %11 = call noundef signext i8 @_ZL9U_FAILURE10UErrorCode(i32 noundef %10)
  %12 = icmp ne i8 %11, 0
  br i1 %12, label %13, label %14

13:                                               ; preds = %4
  br label %27

14:                                               ; preds = %4
  %15 = load i32, ptr %6, align 4, !tbaa !3
  %16 = and i32 %15, -1024
  %17 = icmp eq i32 %16, 55296
  br i1 %17, label %20, label %18

18:                                               ; preds = %14
  %19 = load ptr, ptr %8, align 8, !tbaa !7
  store i32 1, ptr %19, align 4, !tbaa !9
  br label %27

20:                                               ; preds = %14
  %21 = load ptr, ptr %5, align 8, !tbaa !11
  %22 = getelementptr inbounds nuw %struct.UTrie2, ptr %21, i32 0, i32 16
  %23 = load ptr, ptr %22, align 8, !tbaa !23
  %24 = load i32, ptr %6, align 4, !tbaa !3
  %25 = load i32, ptr %7, align 4, !tbaa !3
  %26 = load ptr, ptr %8, align 8, !tbaa !7
  call void @_ZL5set32P9UNewTrie2iajP10UErrorCode(ptr noundef %23, i32 noundef %24, i8 noundef signext 0, i32 noundef %25, ptr noundef %26)
  br label %27

27:                                               ; preds = %20, %18, %13
  ret void
}

; Function Attrs: inlinehint mustprogress nounwind uwtable
define internal noundef signext i8 @_ZL9U_FAILURE10UErrorCode(i32 noundef %0) #2 {
  %2 = alloca i32, align 4
  store i32 %0, ptr %2, align 4, !tbaa !9
  %3 = load i32, ptr %2, align 4, !tbaa !9
  %4 = icmp sgt i32 %3, 0
  %5 = zext i1 %4 to i8
  ret i8 %5
}

; Function Attrs: mustprogress uwtable
define ptr @utrie2_cloneAsThawed_77(ptr noundef %0, ptr noundef %1) #0 {
  %3 = alloca ptr, align 8
  %4 = alloca ptr, align 8
  %5 = alloca ptr, align 8
  %6 = alloca %struct.NewTrieAndStatus, align 8
  %7 = alloca i16, align 2
  %8 = alloca i32, align 4
  %9 = alloca i32, align 4
  store ptr %0, ptr %4, align 8, !tbaa !11
  store ptr %1, ptr %5, align 8, !tbaa !7
  call void @llvm.lifetime.start.p0(i64 16, ptr %6) #9
  call void @llvm.lifetime.start.p0(i64 2, ptr %7) #9
  %10 = load ptr, ptr %5, align 8, !tbaa !7
  %11 = load i32, ptr %10, align 4, !tbaa !9
  %12 = call noundef signext i8 @_ZL9U_FAILURE10UErrorCode(i32 noundef %11)
  %13 = icmp ne i8 %12, 0
  br i1 %13, label %14, label %15

14:                                               ; preds = %2
  store ptr null, ptr %3, align 8
  store i32 1, ptr %8, align 4
  br label %155

15:                                               ; preds = %2
  %16 = load ptr, ptr %4, align 8, !tbaa !11
  %17 = icmp eq ptr %16, null
  br i1 %17, label %28, label %18

18:                                               ; preds = %15
  %19 = load ptr, ptr %4, align 8, !tbaa !11
  %20 = getelementptr inbounds nuw %struct.UTrie2, ptr %19, i32 0, i32 11
  %21 = load ptr, ptr %20, align 8, !tbaa !49
  %22 = icmp eq ptr %21, null
  br i1 %22, label %23, label %30

23:                                               ; preds = %18
  %24 = load ptr, ptr %4, align 8, !tbaa !11
  %25 = getelementptr inbounds nuw %struct.UTrie2, ptr %24, i32 0, i32 16
  %26 = load ptr, ptr %25, align 8, !tbaa !23
  %27 = icmp eq ptr %26, null
  br i1 %27, label %28, label %30

28:                                               ; preds = %23, %15
  %29 = load ptr, ptr %5, align 8, !tbaa !7
  store i32 1, ptr %29, align 4, !tbaa !9
  store ptr null, ptr %3, align 8
  store i32 1, ptr %8, align 4
  br label %155

30:                                               ; preds = %23, %18
  %31 = load ptr, ptr %4, align 8, !tbaa !11
  %32 = getelementptr inbounds nuw %struct.UTrie2, ptr %31, i32 0, i32 16
  %33 = load ptr, ptr %32, align 8, !tbaa !23
  %34 = icmp ne ptr %33, null
  br i1 %34, label %35, label %46

35:                                               ; preds = %30
  %36 = load ptr, ptr %4, align 8, !tbaa !11
  %37 = getelementptr inbounds nuw %struct.UTrie2, ptr %36, i32 0, i32 16
  %38 = load ptr, ptr %37, align 8, !tbaa !23
  %39 = getelementptr inbounds nuw %struct.UNewTrie2, ptr %38, i32 0, i32 12
  %40 = load i8, ptr %39, align 4, !tbaa !31
  %41 = icmp ne i8 %40, 0
  br i1 %41, label %46, label %42

42:                                               ; preds = %35
  %43 = load ptr, ptr %4, align 8, !tbaa !11
  %44 = load ptr, ptr %5, align 8, !tbaa !7
  %45 = call ptr @utrie2_clone_77(ptr noundef %43, ptr noundef %44)
  store ptr %45, ptr %3, align 8
  store i32 1, ptr %8, align 4
  br label %155

46:                                               ; preds = %35, %30
  %47 = load ptr, ptr %4, align 8, !tbaa !11
  %48 = getelementptr inbounds nuw %struct.UTrie2, ptr %47, i32 0, i32 7
  %49 = load i32, ptr %48, align 4, !tbaa !17
  %50 = load ptr, ptr %4, align 8, !tbaa !11
  %51 = getelementptr inbounds nuw %struct.UTrie2, ptr %50, i32 0, i32 8
  %52 = load i32, ptr %51, align 8, !tbaa !21
  %53 = load ptr, ptr %5, align 8, !tbaa !7
  %54 = call ptr @utrie2_open_77(i32 noundef %49, i32 noundef %52, ptr noundef %53)
  %55 = getelementptr inbounds nuw %struct.NewTrieAndStatus, ptr %6, i32 0, i32 0
  store ptr %54, ptr %55, align 8, !tbaa !55
  %56 = load ptr, ptr %5, align 8, !tbaa !7
  %57 = load i32, ptr %56, align 4, !tbaa !9
  %58 = call noundef signext i8 @_ZL9U_FAILURE10UErrorCode(i32 noundef %57)
  %59 = icmp ne i8 %58, 0
  br i1 %59, label %60, label %61

60:                                               ; preds = %46
  store ptr null, ptr %3, align 8
  store i32 1, ptr %8, align 4
  br label %155

61:                                               ; preds = %46
  %62 = getelementptr inbounds nuw %struct.NewTrieAndStatus, ptr %6, i32 0, i32 2
  store i8 0, ptr %62, align 4, !tbaa !57
  %63 = load ptr, ptr %5, align 8, !tbaa !7
  %64 = load i32, ptr %63, align 4, !tbaa !9
  %65 = getelementptr inbounds nuw %struct.NewTrieAndStatus, ptr %6, i32 0, i32 1
  store i32 %64, ptr %65, align 8, !tbaa !58
  %66 = load ptr, ptr %4, align 8, !tbaa !11
  call void @utrie2_enum_77(ptr noundef %66, ptr noundef null, ptr noundef @_ZL13copyEnumRangePKviij, ptr noundef %6)
  %67 = getelementptr inbounds nuw %struct.NewTrieAndStatus, ptr %6, i32 0, i32 1
  %68 = load i32, ptr %67, align 8, !tbaa !58
  %69 = load ptr, ptr %5, align 8, !tbaa !7
  store i32 %68, ptr %69, align 4, !tbaa !9
  store i16 -10240, ptr %7, align 2, !tbaa !59
  br label %70

70:                                               ; preds = %140, %61
  %71 = load i16, ptr %7, align 2, !tbaa !59
  %72 = zext i16 %71 to i32
  %73 = icmp slt i32 %72, 56320
  br i1 %73, label %74, label %143

74:                                               ; preds = %70
  call void @llvm.lifetime.start.p0(i64 4, ptr %9) #9
  %75 = load ptr, ptr %4, align 8, !tbaa !11
  %76 = getelementptr inbounds nuw %struct.UTrie2, ptr %75, i32 0, i32 2
  %77 = load ptr, ptr %76, align 8, !tbaa !54
  %78 = icmp eq ptr %77, null
  br i1 %78, label %79, label %103

79:                                               ; preds = %74
  %80 = load ptr, ptr %4, align 8, !tbaa !11
  %81 = getelementptr inbounds nuw %struct.UTrie2, ptr %80, i32 0, i32 0
  %82 = load ptr, ptr %81, align 8, !tbaa !52
  %83 = load ptr, ptr %4, align 8, !tbaa !11
  %84 = getelementptr inbounds nuw %struct.UTrie2, ptr %83, i32 0, i32 0
  %85 = load ptr, ptr %84, align 8, !tbaa !52
  %86 = load i16, ptr %7, align 2, !tbaa !59
  %87 = zext i16 %86 to i32
  %88 = ashr i32 %87, 5
  %89 = add nsw i32 0, %88
  %90 = sext i32 %89 to i64
  %91 = getelementptr inbounds i16, ptr %85, i64 %90
  %92 = load i16, ptr %91, align 2, !tbaa !61
  %93 = zext i16 %92 to i32
  %94 = shl i32 %93, 2
  %95 = load i16, ptr %7, align 2, !tbaa !59
  %96 = zext i16 %95 to i32
  %97 = and i32 %96, 31
  %98 = add nsw i32 %94, %97
  %99 = sext i32 %98 to i64
  %100 = getelementptr inbounds i16, ptr %82, i64 %99
  %101 = load i16, ptr %100, align 2, !tbaa !61
  %102 = zext i16 %101 to i32
  store i32 %102, ptr %9, align 4, !tbaa !3
  br label %126

103:                                              ; preds = %74
  %104 = load ptr, ptr %4, align 8, !tbaa !11
  %105 = getelementptr inbounds nuw %struct.UTrie2, ptr %104, i32 0, i32 2
  %106 = load ptr, ptr %105, align 8, !tbaa !54
  %107 = load ptr, ptr %4, align 8, !tbaa !11
  %108 = getelementptr inbounds nuw %struct.UTrie2, ptr %107, i32 0, i32 0
  %109 = load ptr, ptr %108, align 8, !tbaa !52
  %110 = load i16, ptr %7, align 2, !tbaa !59
  %111 = zext i16 %110 to i32
  %112 = ashr i32 %111, 5
  %113 = add nsw i32 0, %112
  %114 = sext i32 %113 to i64
  %115 = getelementptr inbounds i16, ptr %109, i64 %114
  %116 = load i16, ptr %115, align 2, !tbaa !61
  %117 = zext i16 %116 to i32
  %118 = shl i32 %117, 2
  %119 = load i16, ptr %7, align 2, !tbaa !59
  %120 = zext i16 %119 to i32
  %121 = and i32 %120, 31
  %122 = add nsw i32 %118, %121
  %123 = sext i32 %122 to i64
  %124 = getelementptr inbounds i32, ptr %106, i64 %123
  %125 = load i32, ptr %124, align 4, !tbaa !3
  store i32 %125, ptr %9, align 4, !tbaa !3
  br label %126

126:                                              ; preds = %103, %79
  %127 = load i32, ptr %9, align 4, !tbaa !3
  %128 = load ptr, ptr %4, align 8, !tbaa !11
  %129 = getelementptr inbounds nuw %struct.UTrie2, ptr %128, i32 0, i32 7
  %130 = load i32, ptr %129, align 4, !tbaa !17
  %131 = icmp ne i32 %127, %130
  br i1 %131, label %132, label %139

132:                                              ; preds = %126
  %133 = getelementptr inbounds nuw %struct.NewTrieAndStatus, ptr %6, i32 0, i32 0
  %134 = load ptr, ptr %133, align 8, !tbaa !55
  %135 = load i16, ptr %7, align 2, !tbaa !59
  %136 = zext i16 %135 to i32
  %137 = load i32, ptr %9, align 4, !tbaa !3
  %138 = load ptr, ptr %5, align 8, !tbaa !7
  call void @utrie2_set32ForLeadSurrogateCodeUnit_77(ptr noundef %134, i32 noundef %136, i32 noundef %137, ptr noundef %138)
  br label %139

139:                                              ; preds = %132, %126
  call void @llvm.lifetime.end.p0(i64 4, ptr %9) #9
  br label %140

140:                                              ; preds = %139
  %141 = load i16, ptr %7, align 2, !tbaa !59
  %142 = add i16 %141, 1
  store i16 %142, ptr %7, align 2, !tbaa !59
  br label %70, !llvm.loop !62

143:                                              ; preds = %70
  %144 = load ptr, ptr %5, align 8, !tbaa !7
  %145 = load i32, ptr %144, align 4, !tbaa !9
  %146 = call noundef signext i8 @_ZL9U_FAILURE10UErrorCode(i32 noundef %145)
  %147 = icmp ne i8 %146, 0
  br i1 %147, label %148, label %152

148:                                              ; preds = %143
  %149 = getelementptr inbounds nuw %struct.NewTrieAndStatus, ptr %6, i32 0, i32 0
  %150 = load ptr, ptr %149, align 8, !tbaa !55
  call void @utrie2_close_77(ptr noundef %150)
  %151 = getelementptr inbounds nuw %struct.NewTrieAndStatus, ptr %6, i32 0, i32 0
  store ptr null, ptr %151, align 8, !tbaa !55
  br label %152

152:                                              ; preds = %148, %143
  %153 = getelementptr inbounds nuw %struct.NewTrieAndStatus, ptr %6, i32 0, i32 0
  %154 = load ptr, ptr %153, align 8, !tbaa !55
  store ptr %154, ptr %3, align 8
  store i32 1, ptr %8, align 4
  br label %155

155:                                              ; preds = %152, %60, %42, %28, %14
  call void @llvm.lifetime.end.p0(i64 2, ptr %7) #9
  call void @llvm.lifetime.end.p0(i64 16, ptr %6) #9
  %156 = load ptr, ptr %3, align 8
  ret ptr %156
}