; Function Attrs: mustprogress uwtable
define ptr @utrie2_cloneAsThawed_77(ptr noundef %0, ptr noundef captures(none) %1) local_unnamed_addr #0 {
  %3 = alloca %struct.NewTrieAndStatus, align 8
  call void @llvm.lifetime.start.p0(i64 16, ptr nonnull %3) #8
  %4 = load i32, ptr %1, align 4, !tbaa !3
  %5 = icmp slt i32 %4, 1
  br i1 %5, label %6, label %88

6:                                                ; preds = %2
  %7 = icmp eq ptr %0, null
  br i1 %7, label %16, label %8

8:                                                ; preds = %6
  %9 = getelementptr inbounds nuw i8, ptr %0, i64 56
  %10 = load ptr, ptr %9, align 8, !tbaa !42
  %11 = icmp eq ptr %10, null
  %12 = getelementptr inbounds nuw i8, ptr %0, i64 72
  %13 = load ptr, ptr %12, align 8, !tbaa !17
  %14 = icmp eq ptr %13, null
  br i1 %11, label %15, label %17

15:                                               ; preds = %8
  br i1 %14, label %16, label %.thread

16:                                               ; preds = %15, %6
  store i32 1, ptr %1, align 4, !tbaa !3
  br label %88

17:                                               ; preds = %8
  br i1 %14, label %22, label %.thread

.thread:                                          ; preds = %15, %17
  %18 = getelementptr inbounds nuw i8, ptr %13, i64 144172
  %19 = load i8, ptr %18, align 4, !tbaa !25
  %.not40 = icmp eq i8 %19, 0
  br i1 %.not40, label %20, label %22

20:                                               ; preds = %.thread
  %21 = tail call ptr @utrie2_clone_77(ptr noundef nonnull %0, ptr noundef nonnull %1)
  br label %88

22:                                               ; preds = %.thread, %17
  %23 = getelementptr inbounds nuw i8, ptr %0, i64 36
  %24 = load i32, ptr %23, align 4, !tbaa !7
  %25 = getelementptr inbounds nuw i8, ptr %0, i64 40
  %26 = load i32, ptr %25, align 8, !tbaa !15
  %27 = tail call ptr @utrie2_open_77(i32 noundef %24, i32 noundef %26, ptr noundef nonnull %1)
  store ptr %27, ptr %3, align 8, !tbaa !48
  %28 = load i32, ptr %1, align 4, !tbaa !3
  %29 = icmp slt i32 %28, 1
  br i1 %29, label %30, label %88

30:                                               ; preds = %22
  %31 = getelementptr inbounds nuw i8, ptr %3, i64 12
  store i8 0, ptr %31, align 4, !tbaa !51
  %32 = getelementptr inbounds nuw i8, ptr %3, i64 8
  store i32 %28, ptr %32, align 8, !tbaa !52
  call void @utrie2_enum_77(ptr noundef nonnull %0, ptr noundef null, ptr noundef nonnull @_ZL13copyEnumRangePKviij, ptr noundef nonnull %3)
  %33 = load i32, ptr %32, align 8, !tbaa !52
  store i32 %33, ptr %1, align 4, !tbaa !3
  %34 = getelementptr inbounds nuw i8, ptr %0, i64 16
  br label %35

35:                                               ; preds = %30, %utrie2_set32ForLeadSurrogateCodeUnit_77.exit
  %indvars.iv = phi i32 [ 55296, %30 ], [ %indvars.iv.next, %utrie2_set32ForLeadSurrogateCodeUnit_77.exit ]
  %36 = load ptr, ptr %34, align 8, !tbaa !47
  %37 = icmp eq ptr %36, null
  %38 = load ptr, ptr %0, align 8, !tbaa !45
  %39 = lshr i32 %indvars.iv, 5
  %40 = zext nneg i32 %39 to i64
  %41 = getelementptr inbounds nuw i16, ptr %38, i64 %40
  %42 = load i16, ptr %41, align 2, !tbaa !53
  %43 = zext i16 %42 to i32
  %44 = shl nuw nsw i32 %43, 2
  %45 = and i32 %indvars.iv, 31
  %46 = add nuw nsw i32 %44, %45
  %47 = zext nneg i32 %46 to i64
  br i1 %37, label %48, label %52

48:                                               ; preds = %35
  %49 = getelementptr inbounds nuw i16, ptr %38, i64 %47
  %50 = load i16, ptr %49, align 2, !tbaa !53
  %51 = zext i16 %50 to i32
  br label %55

52:                                               ; preds = %35
  %53 = getelementptr inbounds nuw i32, ptr %36, i64 %47
  %54 = load i32, ptr %53, align 4, !tbaa !26
  br label %55

55:                                               ; preds = %52, %48
  %.0 = phi i32 [ %51, %48 ], [ %54, %52 ]
  %56 = load i32, ptr %23, align 4, !tbaa !7
  %.not43 = icmp eq i32 %.0, %56
  br i1 %.not43, label %utrie2_set32ForLeadSurrogateCodeUnit_77.exit, label %57

57:                                               ; preds = %55
  %58 = load ptr, ptr %3, align 8, !tbaa !48
  %59 = load i32, ptr %1, align 4, !tbaa !3
  %60 = icmp slt i32 %59, 1
  br i1 %60, label %61, label %utrie2_set32ForLeadSurrogateCodeUnit_77.exit

61:                                               ; preds = %57
  %62 = and i32 %indvars.iv, 64512
  %63 = icmp eq i32 %62, 55296
  br i1 %63, label %65, label %64

64:                                               ; preds = %61
  store i32 1, ptr %1, align 4, !tbaa !3
  br label %utrie2_set32ForLeadSurrogateCodeUnit_77.exit

65:                                               ; preds = %61
  %66 = getelementptr inbounds nuw i8, ptr %58, i64 72
  %67 = load ptr, ptr %66, align 8, !tbaa !17
  %68 = icmp eq ptr %67, null
  br i1 %68, label %72, label %69

69:                                               ; preds = %65
  %70 = getelementptr inbounds nuw i8, ptr %67, i64 144172
  %71 = load i8, ptr %70, align 4, !tbaa !25
  %.not.i.i = icmp eq i8 %71, 0
  br i1 %.not.i.i, label %73, label %72

72:                                               ; preds = %69, %65
  store i32 30, ptr %1, align 4, !tbaa !3
  br label %utrie2_set32ForLeadSurrogateCodeUnit_77.exit

73:                                               ; preds = %69
  %74 = call fastcc noundef i32 @_ZL12getDataBlockP9UNewTrie2ia(ptr noundef %67, i32 noundef %indvars.iv, i8 noundef signext 0)
  %75 = icmp slt i32 %74, 0
  br i1 %75, label %76, label %77

76:                                               ; preds = %73
  store i32 7, ptr %1, align 4, !tbaa !3
  br label %utrie2_set32ForLeadSurrogateCodeUnit_77.exit

77:                                               ; preds = %73
  %78 = getelementptr inbounds nuw i8, ptr %67, i64 144128
  %79 = load ptr, ptr %78, align 8, !tbaa !18
  %80 = and i32 %indvars.iv, 31
  %81 = add nuw nsw i32 %74, %80
  %82 = zext nneg i32 %81 to i64
  %83 = getelementptr inbounds nuw i32, ptr %79, i64 %82
  store i32 %.0, ptr %83, align 4, !tbaa !26
  br label %utrie2_set32ForLeadSurrogateCodeUnit_77.exit

utrie2_set32ForLeadSurrogateCodeUnit_77.exit:     ; preds = %77, %76, %72, %64, %57, %55
  %indvars.iv.next = add nuw nsw i32 %indvars.iv, 1
  %exitcond.not = icmp eq i32 %indvars.iv.next, 56320
  br i1 %exitcond.not, label %84, label %35, !llvm.loop !54

84:                                               ; preds = %utrie2_set32ForLeadSurrogateCodeUnit_77.exit
  %85 = load i32, ptr %1, align 4, !tbaa !3
  %86 = icmp slt i32 %85, 1
  %.pre46 = load ptr, ptr %3, align 8, !tbaa !48
  br i1 %86, label %88, label %87

87:                                               ; preds = %84
  call void @utrie2_close_77(ptr noundef %.pre46)
  br label %88

88:                                               ; preds = %84, %87, %22, %2, %20, %16
  %.034 = phi ptr [ null, %16 ], [ %21, %20 ], [ null, %2 ], [ null, %22 ], [ null, %87 ], [ %.pre46, %84 ]
  call void @llvm.lifetime.end.p0(i64 16, ptr nonnull %3) #8
  ret ptr %.034
}